; Function Attrs: mustprogress uwtable
define void @_ZN17DisplayFilterEdit11clearFilterEv(ptr noundef nonnull align 8 dereferenceable(352) %0) #2 align 2 personality ptr @__gxx_personality_v0 {
  %2 = alloca %class.QString, align 8
  tail call void @_ZN9QLineEdit5clearEv(ptr noundef nonnull align 8 dereferenceable(40) %0)
  %3 = getelementptr inbounds i8, ptr %0, i64 272
  %4 = load ptr, ptr %3, align 8
  %.not.i.i.i = icmp eq ptr %4, null
  tail call void @llvm.memset.p0.i64(ptr noundef nonnull align 8 dereferenceable(24) %3, i8 0, i64 24, i1 false)
  br i1 %.not.i.i.i, label %_ZN7QStringD2Ev.exit, label %_ZN17QArrayDataPointerIDsE5derefEv.exit.i.i

_ZN17QArrayDataPointerIDsE5derefEv.exit.i.i:      ; preds = %1
  %5 = atomicrmw sub ptr %4, i32 1 seq_cst, align 4
  %.not.i.i = icmp eq i32 %5, 1
  br i1 %.not.i.i, label %6, label %_ZN7QStringD2Ev.exit

6:                                                ; preds = %_ZN17QArrayDataPointerIDsE5derefEv.exit.i.i
  tail call void @_ZN10QArrayData10deallocateEPS_xx(ptr noundef nonnull %4, i64 noundef 2, i64 noundef 8) #19
  br label %_ZN7QStringD2Ev.exit

_ZN7QStringD2Ev.exit:                             ; preds = %1, %_ZN17QArrayDataPointerIDsE5derefEv.exit.i.i, %6
  tail call void @_ZN17DisplayFilterEdit17updateClearButtonEv(ptr noundef nonnull align 8 dereferenceable(352) %0)
  call void @llvm.memset.p0.i64(ptr noundef nonnull align 8 dereferenceable(24) %2, i8 0, i64 24, i1 false)
  invoke void @_ZN17DisplayFilterEdit13filterPacketsE7QStringb(ptr noundef nonnull align 8 dereferenceable(352) %0, ptr noundef nonnull %2, i1 noundef zeroext true)
          to label %7 unwind label %12

7:                                                ; preds = %_ZN7QStringD2Ev.exit
  %8 = load ptr, ptr %2, align 8
  %.not.i.i.i2 = icmp eq ptr %8, null
  br i1 %.not.i.i.i2, label %_ZN7QStringD2Ev.exit5, label %_ZN17QArrayDataPointerIDsE5derefEv.exit.i.i3

_ZN17QArrayDataPointerIDsE5derefEv.exit.i.i3:     ; preds = %7
  %9 = atomicrmw sub ptr %8, i32 1 seq_cst, align 4
  %.not.i.i4 = icmp eq i32 %9, 1
  br i1 %.not.i.i4, label %10, label %_ZN7QStringD2Ev.exit5

10:                                               ; preds = %_ZN17QArrayDataPointerIDsE5derefEv.exit.i.i3
  %11 = load ptr, ptr %2, align 8
  call void @_ZN10QArrayData10deallocateEPS_xx(ptr noundef %11, i64 noundef 2, i64 noundef 8) #19
  br label %_ZN7QStringD2Ev.exit5

_ZN7QStringD2Ev.exit5:                            ; preds = %7, %_ZN17QArrayDataPointerIDsE5derefEv.exit.i.i3, %10
  ret void

12:                                               ; preds = %_ZN7QStringD2Ev.exit
  %13 = landingpad { ptr, i32 }
          cleanup
  %14 = load ptr, ptr %2, align 8
  %.not.i.i.i6 = icmp eq ptr %14, null
  br i1 %.not.i.i.i6, label %_ZN7QStringD2Ev.exit9, label %_ZN17QArrayDataPointerIDsE5derefEv.exit.i.i7

_ZN17QArrayDataPointerIDsE5derefEv.exit.i.i7:     ; preds = %12
  %15 = atomicrmw sub ptr %14, i32 1 seq_cst, align 4
  %.not.i.i8 = icmp eq i32 %15, 1
  br i1 %.not.i.i8, label %16, label %_ZN7QStringD2Ev.exit9

16:                                               ; preds = %_ZN17QArrayDataPointerIDsE5derefEv.exit.i.i7
  %17 = load ptr, ptr %2, align 8
  call void @_ZN10QArrayData10deallocateEPS_xx(ptr noundef %17, i64 noundef 2, i64 noundef 8) #19
  br label %_ZN7QStringD2Ev.exit9

_ZN7QStringD2Ev.exit9:                            ; preds = %12, %_ZN17QArrayDataPointerIDsE5derefEv.exit.i.i7, %16
  resume { ptr, i32 } %13
}